target datalayout = "e-m:e-p270:32:32-p271:32:32-p272:64:64-i64:64-i128:128-f80:128-n8:16:32:64-S128"
target triple = "x86_64-unknown-linux-gnu"

%"class.absl::debian2::string_view" = type { ptr, i64 }
%"class.re2::Regexp::ParseState" = type { i32, %"class.absl::debian2::string_view", ptr, ptr, i32, i32 }
%"class.re2::Regexp" = type { i8, i8, i16, i16, i16, %union.anon, ptr, %union.anon.0 }
%union.anon = type { ptr }
%union.anon.0 = type { %struct.anon.1 }
%struct.anon.1 = type { i32, ptr }

; Function Attrs: mustprogress nounwind uwtable
define linkonce_odr noundef i32 @_ZN3re26Regexp2opEv(ptr noundef nonnull align 8 dereferenceable(40) %this) #0 comdat align 2 {
entry:
  %this.addr = alloca ptr, align 8
  store ptr %this, ptr %this.addr, align 8
  %this1 = load ptr, ptr %this.addr, align 8
  %op_ = getelementptr inbounds %"class.re2::Regexp", ptr %this1, i32 0, i32 0
  %0 = load i8, ptr %op_, align 8
  %conv = zext i8 %0 to i32
  ret i32 %conv
}

; Function Attrs: mustprogress nounwind uwtable
define void @_ZN3re26Regexp10ParseStateD2Ev(ptr noundef nonnull align 8 dereferenceable(48) %this) unnamed_addr #0 align 2 personality ptr @__gxx_personality_v0 {
entry:
  %this.addr = alloca ptr, align 8
  %next = alloca ptr, align 8
  %re = alloca ptr, align 8
  store ptr %this, ptr %this.addr, align 8
  %this1 = load ptr, ptr %this.addr, align 8
  %stacktop_ = getelementptr inbounds %"class.re2::Regexp::ParseState", ptr %this1, i32 0, i32 3
  %0 = load ptr, ptr %stacktop_, align 8
  store ptr %0, ptr %re, align 8
  br label %for.cond

for.cond:                                         ; preds = %for.inc, %entry
  %1 = load ptr, ptr %re, align 8
  %cmp = icmp ne ptr %1, null
  br i1 %cmp, label %for.body, label %for.end

for.body:                                         ; preds = %for.cond
  %2 = load ptr, ptr %re, align 8
  %down_ = getelementptr inbounds %"class.re2::Regexp", ptr %2, i32 0, i32 6
  %3 = load ptr, ptr %down_, align 8
  store ptr %3, ptr %next, align 8
  %4 = load ptr, ptr %re, align 8
  %down_2 = getelementptr inbounds %"class.re2::Regexp", ptr %4, i32 0, i32 6
  store ptr null, ptr %down_2, align 8
  %5 = load ptr, ptr %re, align 8
  %call = invoke noundef i32 @_ZN3re26Regexp2opEv(ptr noundef nonnull align 8 dereferenceable(40) %5)
          to label %invoke.cont unwind label %terminate.lpad

invoke.cont:                                      ; preds = %for.body
  %cmp3 = icmp eq i32 %call, 22
  br i1 %cmp3, label %if.then, label %if.end

if.then:                                          ; preds = %invoke.cont
  %6 = load ptr, ptr %re, align 8
  %7 = getelementptr inbounds %"class.re2::Regexp", ptr %6, i32 0, i32 7
  %name_ = getelementptr inbounds %struct.anon.1, ptr %7, i32 0, i32 1
  %8 = load ptr, ptr %name_, align 8
  %isnull = icmp eq ptr %8, null
  br i1 %isnull, label %delete.end, label %delete.notnull

delete.notnull:                                   ; preds = %if.then
  call void @_ZNSt7__cxx1112basic_stringIcSt11char_traitsIcESaIcEED1Ev(ptr noundef nonnull align 8 dereferenceable(32) %8) #12
  call void @_ZdlPv(ptr noundef %8) #13
  br label %delete.end

delete.end:                                       ; preds = %delete.notnull, %if.then
  br label %if.end

if.end:                                           ; preds = %delete.end, %invoke.cont
  %9 = load ptr, ptr %re, align 8
  invoke void @_ZN3re26Regexp6DecrefEv(ptr noundef nonnull align 8 dereferenceable(40) %9)
          to label %invoke.cont4 unwind label %terminate.lpad

invoke.cont4:                                     ; preds = %if.end
  br label %for.inc

for.inc:                                          ; preds = %invoke.cont4
  %10 = load ptr, ptr %next, align 8
  store ptr %10, ptr %re, align 8
  br label %for.cond, !llvm.loop !4

for.end:                                          ; preds = %for.cond
  ret void

terminate.lpad:                                   ; preds = %if.end, %for.body
  %11 = landingpad { ptr, i32 }
          catch ptr null
  %12 = extractvalue { ptr, i32 } %11, 0
  call void @__clang_call_terminate(ptr %12) #14
  unreachable
}