; Function Attrs: mustprogress nounwind uwtable
define void @_ZN3re26Regexp10ParseStateD2Ev(ptr nocapture noundef nonnull readonly align 8 dereferenceable(48) %this) unnamed_addr #3 align 2 personality ptr @__gxx_personality_v0 {
entry:
  %stacktop_ = getelementptr inbounds i8, ptr %this, i64 32
  %0 = load ptr, ptr %stacktop_, align 8
  br label %for.cond

for.cond:                                         ; preds = %if.end, %entry
  %re.0 = phi ptr [ %0, %entry ], [ %1, %if.end ]
  %cmp.not = icmp eq ptr %re.0, null
  br i1 %cmp.not, label %for.end, label %for.body

for.body:                                         ; preds = %for.cond
  %down_ = getelementptr inbounds i8, ptr %re.0, i64 16
  %1 = load ptr, ptr %down_, align 8
  store ptr null, ptr %down_, align 8
  %2 = load i8, ptr %re.0, align 8
  %cmp3 = icmp eq i8 %2, 22
  br i1 %cmp3, label %if.then, label %if.end

if.then:                                          ; preds = %for.body
  %name_ = getelementptr inbounds i8, ptr %re.0, i64 32
  %3 = load ptr, ptr %name_, align 8
  %isnull = icmp eq ptr %3, null
  br i1 %isnull, label %if.end, label %delete.notnull

delete.notnull:                                   ; preds = %if.then
  tail call void @_ZNSt7__cxx1112basic_stringIcSt11char_traitsIcESaIcEED1Ev(ptr noundef nonnull align 8 dereferenceable(32) %3) #25
  tail call void @_ZdlPv(ptr noundef nonnull %3) #26
  br label %if.end

if.end:                                           ; preds = %if.then, %delete.notnull, %for.body
  invoke void @_ZN3re26Regexp6DecrefEv(ptr noundef nonnull align 8 dereferenceable(40) %re.0)
          to label %for.cond unwind label %terminate.lpad, !llvm.loop !4

for.end:                                          ; preds = %for.cond
  ret void

terminate.lpad:                                   ; preds = %if.end
  %4 = landingpad { ptr, i32 }
          catch ptr null
  %5 = extractvalue { ptr, i32 } %4, 0
  tail call void @__clang_call_terminate(ptr %5) #27
  unreachable
}